target datalayout = "e-m:e-p270:32:32-p271:32:32-p272:64:64-i64:64-i128:128-f80:128-n8:16:32:64-S128"
target triple = "x86_64-pc-linux-gnu"

%union.anon = type { ptr }
%struct.AVPacket = type { ptr, i64, i64, ptr, i32, i32, i32, ptr, i32, i64, i64, ptr, ptr, %struct.AVRational }
%struct.AVRational = type { i32, i32 }

@.str = private unnamed_addr constant [6 x i8] c"vnull\00", align 1
@.str.1 = private unnamed_addr constant [11 x i8] c"null video\00", align 1
@ff_vnull_decoder = constant { { ptr, ptr, i32, i32, i32, i8, [3 x i8], ptr, ptr, ptr, ptr, ptr, ptr, ptr, ptr }, i8, i8, i8, i8, i32, ptr, ptr, ptr, ptr, %union.anon, ptr, ptr, ptr, ptr, ptr, ptr } { { ptr, ptr, i32, i32, i32, i8, [3 x i8], ptr, ptr, ptr, ptr, ptr, ptr, ptr, ptr } { ptr @.str, ptr @.str.1, i32 0, i32 135170, i32 2, i8 0, [3 x i8] zeroinitializer, ptr null, ptr null, ptr null, ptr null, ptr null, ptr null, ptr null, ptr null }, i8 0, i8 0, i8 0, i8 4, i32 0, ptr null, ptr null, ptr null, ptr null, %union.anon { ptr @null_decode }, ptr null, ptr null, ptr null, ptr null, ptr null, ptr null }, align 8
@.str.2 = private unnamed_addr constant [6 x i8] c"anull\00", align 1
@.str.3 = private unnamed_addr constant [11 x i8] c"null audio\00", align 1
@ff_anull_decoder = constant { { ptr, ptr, i32, i32, i32, i8, [3 x i8], ptr, ptr, ptr, ptr, ptr, ptr, ptr, ptr }, i8, i8, i8, i8, i32, ptr, ptr, ptr, ptr, %union.anon, ptr, ptr, ptr, ptr, ptr, ptr } { { ptr, ptr, i32, i32, i32, i8, [3 x i8], ptr, ptr, ptr, ptr, ptr, ptr, ptr, ptr } { ptr @.str.2, ptr @.str.3, i32 1, i32 135171, i32 2, i8 0, [3 x i8] zeroinitializer, ptr null, ptr null, ptr null, ptr null, ptr null, ptr null, ptr null, ptr null }, i8 0, i8 0, i8 0, i8 4, i32 0, ptr null, ptr null, ptr null, ptr null, %union.anon { ptr @null_decode }, ptr null, ptr null, ptr null, ptr null, ptr null, ptr null }, align 8
@ff_vnull_encoder = constant { { ptr, ptr, i32, i32, i32, i8, [3 x i8], ptr, ptr, ptr, ptr, ptr, ptr, ptr, ptr }, i8, i8, i8, i8, i32, ptr, ptr, ptr, ptr, %union.anon, ptr, ptr, ptr, ptr, ptr, ptr } { { ptr, ptr, i32, i32, i32, i8, [3 x i8], ptr, ptr, ptr, ptr, ptr, ptr, ptr, ptr } { ptr @.str, ptr @.str.1, i32 0, i32 135170, i32 0, i8 0, [3 x i8] zeroinitializer, ptr null, ptr null, ptr null, ptr null, ptr null, ptr null, ptr null, ptr null }, i8 0, i8 0, i8 0, i8 96, i32 0, ptr null, ptr null, ptr null, ptr null, %union.anon { ptr @null_encode }, ptr null, ptr null, ptr null, ptr null, ptr null, ptr null }, align 8
@.compoundliteral = internal constant [13 x i32] [i32 0, i32 5, i32 1, i32 6, i32 2, i32 7, i32 10, i32 11, i32 3, i32 8, i32 4, i32 9, i32 -1], align 4
@ff_anull_encoder = constant { { ptr, ptr, i32, i32, i32, i8, [3 x i8], ptr, ptr, ptr, ptr, ptr, ptr, ptr, ptr }, i8, i8, i8, i8, i32, ptr, ptr, ptr, ptr, %union.anon, ptr, ptr, ptr, ptr, ptr, ptr } { { ptr, ptr, i32, i32, i32, i8, [3 x i8], ptr, ptr, ptr, ptr, ptr, ptr, ptr, ptr } { ptr @.str.2, ptr @.str.3, i32 1, i32 135171, i32 65536, i8 0, [3 x i8] zeroinitializer, ptr null, ptr null, ptr null, ptr @.compoundliteral, ptr null, ptr null, ptr null, ptr null }, i8 0, i8 0, i8 0, i8 96, i32 0, ptr null, ptr null, ptr null, ptr null, %union.anon { ptr @null_encode }, ptr null, ptr null, ptr null, ptr null, ptr null, ptr null }, align 8

; Function Attrs: nounwind uwtable
define internal i32 @null_decode(ptr noundef %0, ptr noundef %1, ptr noundef %2, ptr noundef %3) #0 {
  %5 = alloca ptr, align 8
  %6 = alloca ptr, align 8
  %7 = alloca ptr, align 8
  %8 = alloca ptr, align 8
  store ptr %0, ptr %5, align 8, !tbaa !4
  store ptr %1, ptr %6, align 8, !tbaa !9
  store ptr %2, ptr %7, align 8, !tbaa !11
  store ptr %3, ptr %8, align 8, !tbaa !13
  %9 = load ptr, ptr %7, align 8, !tbaa !11
  store i32 0, ptr %9, align 4, !tbaa !15
  %10 = load ptr, ptr %8, align 8, !tbaa !13
  %11 = getelementptr inbounds nuw %struct.AVPacket, ptr %10, i32 0, i32 4
  %12 = load i32, ptr %11, align 8, !tbaa !17
  ret i32 %12
}

; Function Attrs: nounwind uwtable
define internal i32 @null_encode(ptr noundef %0, ptr noundef %1, ptr noundef %2, ptr noundef %3) #0 {
  %5 = alloca ptr, align 8
  %6 = alloca ptr, align 8
  %7 = alloca ptr, align 8
  %8 = alloca ptr, align 8
  store ptr %0, ptr %5, align 8, !tbaa !4
  store ptr %1, ptr %6, align 8, !tbaa !13
  store ptr %2, ptr %7, align 8, !tbaa !9
  store ptr %3, ptr %8, align 8, !tbaa !11
  %9 = load ptr, ptr %8, align 8, !tbaa !11
  store i32 0, ptr %9, align 4, !tbaa !15
  ret i32 0
}


!llvm.module.flags = !{!0, !1, !2, !3}

!0 = !{i32 1, !"wchar_size", i32 4}
!1 = !{i32 8, !"PIC Level", i32 2}
!2 = !{i32 7, !"uwtable", i32 2}
!3 = !{i32 1, !"override-stack-alignment", i32 16}
!4 = !{!5, !5, i64 0}
!5 = !{!"p1 _ZTS14AVCodecContext", !6, i64 0}
!6 = !{!"any pointer", !7, i64 0}
!7 = !{!"omnipotent char", !8, i64 0}
!8 = !{!"Simple C/C++ TBAA"}
!9 = !{!10, !10, i64 0}
!10 = !{!"p1 _ZTS7AVFrame", !6, i64 0}
!11 = !{!12, !12, i64 0}
!12 = !{!"p1 int", !6, i64 0}
!13 = !{!14, !14, i64 0}
!14 = !{!"p1 _ZTS8AVPacket", !6, i64 0}
!15 = !{!16, !16, i64 0}
!16 = !{!"int", !7, i64 0}
!17 = !{!18, !16, i64 32}
!18 = !{!"AVPacket", !19, i64 0, !20, i64 8, !20, i64 16, !21, i64 24, !16, i64 32, !16, i64 36, !16, i64 40, !22, i64 48, !16, i64 56, !20, i64 64, !20, i64 72, !6, i64 80, !19, i64 88, !23, i64 96}
!19 = !{!"p1 _ZTS11AVBufferRef", !6, i64 0}
!20 = !{!"long", !7, i64 0}
!21 = !{!"p1 omnipotent char", !6, i64 0}
!22 = !{!"p1 _ZTS16AVPacketSideData", !6, i64 0}
!23 = !{!"AVRational", !16, i64 0, !16, i64 4}
