; ModuleID = 'bench/ffmpeg/original/null.ll'
source_filename = "bench/ffmpeg/original/null.ll"
target datalayout = "e-m:e-p270:32:32-p271:32:32-p272:64:64-i64:64-i128:128-f80:128-n8:16:32:64-S128"
target triple = "x86_64-pc-linux-gnu"

%union.anon = type { ptr }

@.str = private unnamed_addr constant [6 x i8] c"vnull\00", align 1
@.str.1 = private unnamed_addr constant [11 x i8] c"null video\00", align 1
@ff_vnull_decoder = local_unnamed_addr constant { { ptr, ptr, i32, i32, i32, i8, [3 x i8], ptr, ptr, ptr, ptr, ptr, ptr, ptr, ptr }, i8, i8, i8, i8, i32, ptr, ptr, ptr, ptr, %union.anon, ptr, ptr, ptr, ptr, ptr, ptr } { { ptr, ptr, i32, i32, i32, i8, [3 x i8], ptr, ptr, ptr, ptr, ptr, ptr, ptr, ptr } { ptr @.str, ptr @.str.1, i32 0, i32 135170, i32 2, i8 0, [3 x i8] zeroinitializer, ptr null, ptr null, ptr null, ptr null, ptr null, ptr null, ptr null, ptr null }, i8 0, i8 0, i8 0, i8 4, i32 0, ptr null, ptr null, ptr null, ptr null, %union.anon { ptr @null_decode }, ptr null, ptr null, ptr null, ptr null, ptr null, ptr null }, align 8
@.str.2 = private unnamed_addr constant [6 x i8] c"anull\00", align 1
@.str.3 = private unnamed_addr constant [11 x i8] c"null audio\00", align 1
@ff_anull_decoder = local_unnamed_addr constant { { ptr, ptr, i32, i32, i32, i8, [3 x i8], ptr, ptr, ptr, ptr, ptr, ptr, ptr, ptr }, i8, i8, i8, i8, i32, ptr, ptr, ptr, ptr, %union.anon, ptr, ptr, ptr, ptr, ptr, ptr } { { ptr, ptr, i32, i32, i32, i8, [3 x i8], ptr, ptr, ptr, ptr, ptr, ptr, ptr, ptr } { ptr @.str.2, ptr @.str.3, i32 1, i32 135171, i32 2, i8 0, [3 x i8] zeroinitializer, ptr null, ptr null, ptr null, ptr null, ptr null, ptr null, ptr null, ptr null }, i8 0, i8 0, i8 0, i8 4, i32 0, ptr null, ptr null, ptr null, ptr null, %union.anon { ptr @null_decode }, ptr null, ptr null, ptr null, ptr null, ptr null, ptr null }, align 8
@ff_vnull_encoder = local_unnamed_addr constant { { ptr, ptr, i32, i32, i32, i8, [3 x i8], ptr, ptr, ptr, ptr, ptr, ptr, ptr, ptr }, i8, i8, i8, i8, i32, ptr, ptr, ptr, ptr, %union.anon, ptr, ptr, ptr, ptr, ptr, ptr } { { ptr, ptr, i32, i32, i32, i8, [3 x i8], ptr, ptr, ptr, ptr, ptr, ptr, ptr, ptr } { ptr @.str, ptr @.str.1, i32 0, i32 135170, i32 0, i8 0, [3 x i8] zeroinitializer, ptr null, ptr null, ptr null, ptr null, ptr null, ptr null, ptr null, ptr null }, i8 0, i8 0, i8 0, i8 96, i32 0, ptr null, ptr null, ptr null, ptr null, %union.anon { ptr @null_encode }, ptr null, ptr null, ptr null, ptr null, ptr null, ptr null }, align 8
@.compoundliteral = internal constant [13 x i32] [i32 0, i32 5, i32 1, i32 6, i32 2, i32 7, i32 10, i32 11, i32 3, i32 8, i32 4, i32 9, i32 -1], align 4
@ff_anull_encoder = local_unnamed_addr constant { { ptr, ptr, i32, i32, i32, i8, [3 x i8], ptr, ptr, ptr, ptr, ptr, ptr, ptr, ptr }, i8, i8, i8, i8, i32, ptr, ptr, ptr, ptr, %union.anon, ptr, ptr, ptr, ptr, ptr, ptr } { { ptr, ptr, i32, i32, i32, i8, [3 x i8], ptr, ptr, ptr, ptr, ptr, ptr, ptr, ptr } { ptr @.str.2, ptr @.str.3, i32 1, i32 135171, i32 65536, i8 0, [3 x i8] zeroinitializer, ptr null, ptr null, ptr null, ptr @.compoundliteral, ptr null, ptr null, ptr null, ptr null }, i8 0, i8 0, i8 0, i8 96, i32 0, ptr null, ptr null, ptr null, ptr null, %union.anon { ptr @null_encode }, ptr null, ptr null, ptr null, ptr null, ptr null, ptr null }, align 8

; Function Attrs: mustprogress nofree norecurse nosync nounwind willreturn memory(argmem: readwrite) uwtable
define internal i32 @null_decode(ptr readnone captures(none) %0, ptr readnone captures(none) %1, ptr noundef writeonly captures(none) initializes((0, 4)) %2, ptr noundef readonly captures(none) %3) #0 {
  store i32 0, ptr %2, align 4, !tbaa !4
  %5 = getelementptr inbounds nuw i8, ptr %3, i64 32
  %6 = load i32, ptr %5, align 8, !tbaa !8
  ret i32 %6
}

; Function Attrs: mustprogress nofree norecurse nosync nounwind willreturn memory(argmem: write) uwtable
define internal noundef i32 @null_encode(ptr readnone captures(none) %0, ptr readnone captures(none) %1, ptr readnone captures(none) %2, ptr noundef writeonly captures(none) initializes((0, 4)) %3) #1 {
  store i32 0, ptr %3, align 4, !tbaa !4
  ret i32 0
}


!llvm.module.flags = !{!0, !1, !2, !3}

!0 = !{i32 1, !"wchar_size", i32 4}
!1 = !{i32 8, !"PIC Level", i32 2}
!2 = !{i32 7, !"uwtable", i32 2}
!3 = !{i32 1, !"override-stack-alignment", i32 16}
!4 = !{!5, !5, i64 0}
!5 = !{!"int", !6, i64 0}
!6 = !{!"omnipotent char", !7, i64 0}
!7 = !{!"Simple C/C++ TBAA"}
!8 = !{!9, !5, i64 32}
!9 = !{!"AVPacket", !10, i64 0, !12, i64 8, !12, i64 16, !13, i64 24, !5, i64 32, !5, i64 36, !5, i64 40, !14, i64 48, !5, i64 56, !12, i64 64, !12, i64 72, !11, i64 80, !10, i64 88, !15, i64 96}
!10 = !{!"p1 _ZTS11AVBufferRef", !11, i64 0}
!11 = !{!"any pointer", !6, i64 0}
!12 = !{!"long", !6, i64 0}
!13 = !{!"p1 omnipotent char", !11, i64 0}
!14 = !{!"p1 _ZTS16AVPacketSideData", !11, i64 0}
!15 = !{!"AVRational", !5, i64 0, !5, i64 4}
